target datalayout = "e-m:e-p270:32:32-p271:32:32-p272:64:64-i64:64-i128:128-f80:128-n8:16:32:64-S128"
target triple = "x86_64-pc-linux-gnu"

%struct.b2Vec2 = type { float, float }
%struct.b2JointArray = type { ptr, i32, i32 }
%struct.b2JointSimArray = type { ptr, i32, i32 }
%struct.b2BodyId = type { i32, i16, i16 }
%struct.b2NullJointDef = type { %struct.b2BodyId, %struct.b2BodyId, ptr, i32 }
%struct.b2JointId = type { i32, i16, i16 }
%struct.b2World = type { %struct.b2ArenaAllocator, %struct.b2BroadPhase, %struct.b2ConstraintGraph, %struct.b2IdPool, %struct.b2BodyArray, %struct.b2IdPool, %struct.b2SolverSetArray, %struct.b2IdPool, %struct.b2JointArray, %struct.b2IdPool, %struct.b2ContactArray, %struct.b2IdPool, %struct.b2IslandArray, %struct.b2IdPool, %struct.b2IdPool, %struct.b2ShapeArray, %struct.b2ChainShapeArray, %struct.b2SensorArray, %struct.b2TaskContextArray, %struct.b2SensorTaskContextArray, %struct.b2BodyMoveEventArray, %struct.b2SensorBeginTouchEventArray, %struct.b2ContactBeginTouchEventArray, [2 x %struct.b2SensorEndTouchEventArray], [2 x %struct.b2ContactEndTouchEventArray], i32, %struct.b2ContactHitEventArray, %struct.b2BitSet, %struct.b2BitSet, %struct.b2BitSet, i64, i32, %struct.b2Vec2, float, float, float, float, float, float, float, float, ptr, ptr, i16, %struct.b2Profile, ptr, ptr, ptr, ptr, i32, ptr, ptr, ptr, ptr, ptr, float, i32, i32, i16, i8, i8, i8, i8, i8, i8 }
%struct.b2ArenaAllocator = type { ptr, i32, i32, i32, i32, %struct.b2ArenaEntryArray }
%struct.b2ArenaEntryArray = type { ptr, i32, i32 }
%struct.b2BroadPhase = type { [3 x %struct.b2DynamicTree], i32, %struct.b2HashSet, %struct.b2IntArray, ptr, ptr, i32, %struct.b2AtomicInt, %struct.b2HashSet }
%struct.b2DynamicTree = type { ptr, i32, i32, i32, i32, i32, ptr, ptr, ptr, ptr, i32 }
%struct.b2IntArray = type { ptr, i32, i32 }
%struct.b2AtomicInt = type { i32 }
%struct.b2HashSet = type { ptr, i32, i32 }
%struct.b2ConstraintGraph = type { [12 x %struct.b2GraphColor] }
%struct.b2GraphColor = type { %struct.b2BitSet, %struct.b2ContactSimArray, %struct.b2JointSimArray, %union.anon }
%struct.b2ContactSimArray = type { ptr, i32, i32 }
%union.anon = type { ptr }
%struct.b2BodyArray = type { ptr, i32, i32 }
%struct.b2SolverSetArray = type { ptr, i32, i32 }
%struct.b2ContactArray = type { ptr, i32, i32 }
%struct.b2IslandArray = type { ptr, i32, i32 }
%struct.b2IdPool = type { %struct.b2IntArray, i32 }
%struct.b2ShapeArray = type { ptr, i32, i32 }
%struct.b2ChainShapeArray = type { ptr, i32, i32 }
%struct.b2SensorArray = type { ptr, i32, i32 }
%struct.b2TaskContextArray = type { ptr, i32, i32 }
%struct.b2SensorTaskContextArray = type { ptr, i32, i32 }
%struct.b2BodyMoveEventArray = type { ptr, i32, i32 }
%struct.b2SensorBeginTouchEventArray = type { ptr, i32, i32 }
%struct.b2ContactBeginTouchEventArray = type { ptr, i32, i32 }
%struct.b2SensorEndTouchEventArray = type { ptr, i32, i32 }
%struct.b2ContactEndTouchEventArray = type { ptr, i32, i32 }
%struct.b2ContactHitEventArray = type { ptr, i32, i32 }
%struct.b2BitSet = type { ptr, i32, i32 }
%struct.b2Profile = type { float, float, float, float, float, float, float, float, float, float, float, float, float, float, float, float, float, float, float, float, float, float }
%struct.b2Joint = type { ptr, i32, i32, i32, [2 x %struct.b2JointEdge], i32, i32, i32, i32, float, i32, i16, i8, i8 }
%struct.b2JointEdge = type { i32, i32, i32 }
%struct.b2JointSim = type { i32, i32, i32, i32, %struct.b2Vec2, %struct.b2Vec2, float, float, float, float, %union.anon.0 }
%union.anon.0 = type { %struct.b2PrismaticJoint }
%struct.b2PrismaticJoint = type { %struct.b2Vec2, %struct.b2Vec2, float, float, float, float, float, float, float, float, float, float, float, i32, i32, %struct.b2Vec2, %struct.b2Vec2, %struct.b2Vec2, %struct.b2Vec2, float, float, %struct.b2Softness, i8, i8, i8 }
%struct.b2Softness = type { float, float, float }
%struct.b2WorldId = type { i16, i16 }
%struct.b2JointPair = type { ptr, ptr }

@b2Vec2_zero = internal constant %struct.b2Vec2 zeroinitializer, align 4

; Function Attrs: nounwind uwtable
define i64 @b2CreateNullJoint(i32 %0, ptr noundef %1) #0 {
  %3 = alloca %struct.b2JointId, align 4
  %4 = alloca %struct.b2WorldId, align 2
  %5 = alloca ptr, align 8
  %6 = alloca ptr, align 8
  %7 = alloca i32, align 4
  %8 = alloca ptr, align 8
  %9 = alloca ptr, align 8
  %10 = alloca i8, align 1
  %11 = alloca %struct.b2JointPair, align 8
  %12 = alloca ptr, align 8
  store i32 %0, ptr %4, align 2
  store ptr %1, ptr %5, align 8, !tbaa !205
  call void @llvm.lifetime.start.p0(i64 8, ptr %6) #9
  %13 = load i32, ptr %4, align 2
  %14 = call ptr @b2GetWorldFromId(i32 %13)
  store ptr %14, ptr %6, align 8, !tbaa !60
  %15 = load ptr, ptr %6, align 8, !tbaa !60
  %16 = getelementptr inbounds nuw %struct.b2World, ptr %15, i32 0, i32 60
  %17 = load i8, ptr %16, align 1, !tbaa !76, !range !119, !noundef !120
  %18 = trunc i8 %17 to i1
  br i1 %18, label %19, label %23

19:                                               ; preds = %2
  %20 = getelementptr inbounds nuw %struct.b2JointId, ptr %3, i32 0, i32 0
  store i32 0, ptr %20, align 4, !tbaa !62
  %21 = getelementptr inbounds nuw %struct.b2JointId, ptr %3, i32 0, i32 1
  store i16 0, ptr %21, align 4, !tbaa !75
  %22 = getelementptr inbounds nuw %struct.b2JointId, ptr %3, i32 0, i32 2
  store i16 0, ptr %22, align 2, !tbaa !124
  store i32 1, ptr %7, align 4
  br label %69

23:                                               ; preds = %2
  call void @llvm.lifetime.start.p0(i64 8, ptr %8) #9
  %24 = load ptr, ptr %6, align 8, !tbaa !60
  %25 = load ptr, ptr %5, align 8, !tbaa !205
  %26 = getelementptr inbounds nuw %struct.b2NullJointDef, ptr %25, i32 0, i32 0
  %27 = load i64, ptr %26, align 8
  %28 = call ptr @b2GetBodyFullId(ptr noundef %24, i64 %27)
  store ptr %28, ptr %8, align 8, !tbaa !125
  call void @llvm.lifetime.start.p0(i64 8, ptr %9) #9
  %29 = load ptr, ptr %6, align 8, !tbaa !60
  %30 = load ptr, ptr %5, align 8, !tbaa !205
  %31 = getelementptr inbounds nuw %struct.b2NullJointDef, ptr %30, i32 0, i32 1
  %32 = load i64, ptr %31, align 8
  %33 = call ptr @b2GetBodyFullId(ptr noundef %29, i64 %32)
  store ptr %33, ptr %9, align 8, !tbaa !125
  call void @llvm.lifetime.start.p0(i64 1, ptr %10) #9
  store i8 0, ptr %10, align 1, !tbaa !133
  call void @llvm.lifetime.start.p0(i64 16, ptr %11) #9
  %34 = load ptr, ptr %6, align 8, !tbaa !60
  %35 = load ptr, ptr %8, align 8, !tbaa !125
  %36 = load ptr, ptr %9, align 8, !tbaa !125
  %37 = load ptr, ptr %5, align 8, !tbaa !205
  %38 = getelementptr inbounds nuw %struct.b2NullJointDef, ptr %37, i32 0, i32 2
  %39 = load ptr, ptr %38, align 8, !tbaa !207
  %40 = load i8, ptr %10, align 1, !tbaa !133, !range !119, !noundef !120
  %41 = trunc i8 %40 to i1
  %42 = call { ptr, ptr } @b2CreateJoint(ptr noundef %34, ptr noundef %35, ptr noundef %36, ptr noundef %39, float noundef 1.000000e+00, i32 noundef 3, i1 noundef zeroext %41)
  %43 = getelementptr inbounds nuw { ptr, ptr }, ptr %11, i32 0, i32 0
  %44 = extractvalue { ptr, ptr } %42, 0
  store ptr %44, ptr %43, align 8
  %45 = getelementptr inbounds nuw { ptr, ptr }, ptr %11, i32 0, i32 1
  %46 = extractvalue { ptr, ptr } %42, 1
  store ptr %46, ptr %45, align 8
  call void @llvm.lifetime.start.p0(i64 8, ptr %12) #9
  %47 = getelementptr inbounds nuw %struct.b2JointPair, ptr %11, i32 0, i32 1
  %48 = load ptr, ptr %47, align 8, !tbaa !128
  store ptr %48, ptr %12, align 8, !tbaa !121
  %49 = load ptr, ptr %12, align 8, !tbaa !121
  %50 = getelementptr inbounds nuw %struct.b2JointSim, ptr %49, i32 0, i32 3
  store i32 3, ptr %50, align 4, !tbaa !130
  %51 = load ptr, ptr %12, align 8, !tbaa !121
  %52 = getelementptr inbounds nuw %struct.b2JointSim, ptr %51, i32 0, i32 4
  call void @llvm.memcpy.p0.p0.i64(ptr align 4 %52, ptr align 4 @b2Vec2_zero, i64 8, i1 false), !tbaa.struct !43
  %53 = load ptr, ptr %12, align 8, !tbaa !121
  %54 = getelementptr inbounds nuw %struct.b2JointSim, ptr %53, i32 0, i32 5
  call void @llvm.memcpy.p0.p0.i64(ptr align 4 %54, ptr align 4 @b2Vec2_zero, i64 8, i1 false), !tbaa.struct !43
  %55 = getelementptr inbounds nuw %struct.b2JointId, ptr %3, i32 0, i32 0
  %56 = load ptr, ptr %12, align 8, !tbaa !121
  %57 = getelementptr inbounds nuw %struct.b2JointSim, ptr %56, i32 0, i32 0
  %58 = load i32, ptr %57, align 4, !tbaa !143
  %59 = add nsw i32 %58, 1
  store i32 %59, ptr %55, align 4, !tbaa !62
  %60 = getelementptr inbounds nuw %struct.b2JointId, ptr %3, i32 0, i32 1
  %61 = load ptr, ptr %6, align 8, !tbaa !60
  %62 = getelementptr inbounds nuw %struct.b2World, ptr %61, i32 0, i32 58
  %63 = load i16, ptr %62, align 4, !tbaa !144
  store i16 %63, ptr %60, align 4, !tbaa !75
  %64 = getelementptr inbounds nuw %struct.b2JointId, ptr %3, i32 0, i32 2
  %65 = getelementptr inbounds nuw %struct.b2JointPair, ptr %11, i32 0, i32 0
  %66 = load ptr, ptr %65, align 8, !tbaa !145
  %67 = getelementptr inbounds nuw %struct.b2Joint, ptr %66, i32 0, i32 11
  %68 = load i16, ptr %67, align 4, !tbaa !146
  store i16 %68, ptr %64, align 2, !tbaa !124
  store i32 1, ptr %7, align 4
  call void @llvm.lifetime.end.p0(i64 8, ptr %12) #9
  call void @llvm.lifetime.end.p0(i64 16, ptr %11) #9
  call void @llvm.lifetime.end.p0(i64 1, ptr %10) #9
  call void @llvm.lifetime.end.p0(i64 8, ptr %9) #9
  call void @llvm.lifetime.end.p0(i64 8, ptr %8) #9
  br label %69

69:                                               ; preds = %23, %19
  call void @llvm.lifetime.end.p0(i64 8, ptr %6) #9
  %70 = load i64, ptr %3, align 4
  ret i64 %70
}