; Function Attrs: nounwind uwtable
define i64 @b2CreateNullJoint(i32 %0, ptr noundef readonly captures(none) %1) local_unnamed_addr #0 {
  %3 = tail call ptr @b2GetWorldFromId(i32 %0) #10
  %4 = getelementptr inbounds nuw i8, ptr %3, i64 1783
  %5 = load i8, ptr %4, align 1, !tbaa !60, !range !103, !noundef !104
  %6 = trunc nuw i8 %5 to i1
  br i1 %6, label %33, label %7

7:                                                ; preds = %2
  %8 = load i64, ptr %1, align 8
  %9 = tail call ptr @b2GetBodyFullId(ptr noundef nonnull %3, i64 %8) #10
  %10 = getelementptr inbounds nuw i8, ptr %1, i64 8
  %11 = load i64, ptr %10, align 8
  %12 = tail call ptr @b2GetBodyFullId(ptr noundef nonnull %3, i64 %11) #10
  %13 = getelementptr inbounds nuw i8, ptr %1, i64 16
  %14 = load ptr, ptr %13, align 8, !tbaa !167
  %15 = tail call fastcc { ptr, ptr } @b2CreateJoint(ptr noundef nonnull %3, ptr noundef %9, ptr noundef %12, ptr noundef %14, float noundef 1.000000e+00, i32 noundef 3, i1 noundef zeroext false)
  %16 = extractvalue { ptr, ptr } %15, 0
  %17 = extractvalue { ptr, ptr } %15, 1
  %18 = getelementptr inbounds nuw i8, ptr %17, i64 12
  store i32 3, ptr %18, align 4, !tbaa !107
  %19 = getelementptr inbounds nuw i8, ptr %17, i64 16
  tail call void @llvm.memset.p0.i64(ptr noundef nonnull align 4 dereferenceable(16) %19, i8 0, i64 16, i1 false)
  %20 = load i32, ptr %17, align 4, !tbaa !128
  %21 = add nsw i32 %20, 1
  %22 = getelementptr inbounds nuw i8, ptr %3, i64 1780
  %23 = load i16, ptr %22, align 4, !tbaa !129
  %24 = getelementptr inbounds nuw i8, ptr %16, i64 68
  %25 = load i16, ptr %24, align 4, !tbaa !130
  %26 = zext i16 %25 to i64
  %27 = shl nuw i64 %26, 48
  %28 = zext i16 %23 to i64
  %29 = shl nuw nsw i64 %28, 32
  %30 = zext i32 %21 to i64
  %31 = or disjoint i64 %29, %30
  %32 = or disjoint i64 %31, %27
  br label %33

33:                                               ; preds = %2, %7
  %.sroa.015.0.insert.insert = phi i64 [ %32, %7 ], [ 0, %2 ]
  ret i64 %.sroa.015.0.insert.insert
}